target datalayout = "e-m:e-p270:32:32-p271:32:32-p272:64:64-i64:64-i128:128-f80:128-n8:16:32:64-S128"
target triple = "x86_64-pc-linux-gnu"

%struct.varattrib_1b = type { i8, [0 x i8] }
%struct.varattrib_1b_e = type { i8, i8, [0 x i8] }
%struct.anon = type { i32, [0 x i8] }
%struct.PGLZ_Strategy = type { i32, i32, i32, i32, i32, i32 }

@PGLZ_strategy_default = external constant ptr, align 8

; Function Attrs: nounwind uwtable
define dso_local ptr @pglz_compress_datum(ptr noundef %0) #0 {
  %2 = alloca ptr, align 8
  %3 = alloca ptr, align 8
  %4 = alloca i32, align 4
  %5 = alloca i32, align 4
  %6 = alloca ptr, align 8
  %7 = alloca i32, align 4
  store ptr %0, ptr %3, align 8
  call void @llvm.lifetime.start.p0(i64 4, ptr %4) #6
  call void @llvm.lifetime.start.p0(i64 4, ptr %5) #6
  call void @llvm.lifetime.start.p0(i64 8, ptr %6) #6
  store ptr null, ptr %6, align 8
  %8 = load ptr, ptr %3, align 8
  %9 = getelementptr inbounds nuw %struct.varattrib_1b, ptr %8, i32 0, i32 0
  %10 = load i8, ptr %9, align 1
  %11 = zext i8 %10 to i32
  %12 = icmp eq i32 %11, 1
  br i1 %12, label %13, label %41

13:                                               ; preds = %1
  %14 = load ptr, ptr %3, align 8
  %15 = getelementptr inbounds nuw %struct.varattrib_1b_e, ptr %14, i32 0, i32 1
  %16 = load i8, ptr %15, align 1
  %17 = zext i8 %16 to i32
  %18 = icmp eq i32 %17, 1
  br i1 %18, label %19, label %20

19:                                               ; preds = %13
  br label %37

20:                                               ; preds = %13
  %21 = load ptr, ptr %3, align 8
  %22 = getelementptr inbounds nuw %struct.varattrib_1b_e, ptr %21, i32 0, i32 1
  %23 = load i8, ptr %22, align 1
  %24 = zext i8 %23 to i32
  %25 = and i32 %24, -2
  %26 = icmp eq i32 %25, 2
  br i1 %26, label %27, label %28

27:                                               ; preds = %20
  br label %35

28:                                               ; preds = %20
  %29 = load ptr, ptr %3, align 8
  %30 = getelementptr inbounds nuw %struct.varattrib_1b_e, ptr %29, i32 0, i32 1
  %31 = load i8, ptr %30, align 1
  %32 = zext i8 %31 to i32
  %33 = icmp eq i32 %32, 18
  %34 = select i1 %33, i64 16, i64 0
  br label %35

35:                                               ; preds = %28, %27
  %36 = phi i64 [ 8, %27 ], [ %34, %28 ]
  br label %37

37:                                               ; preds = %35, %19
  %38 = phi i64 [ 8, %19 ], [ %36, %35 ]
  %39 = add i64 2, %38
  %40 = sub i64 %39, 2
  br label %67

41:                                               ; preds = %1
  %42 = load ptr, ptr %3, align 8
  %43 = getelementptr inbounds nuw %struct.varattrib_1b, ptr %42, i32 0, i32 0
  %44 = load i8, ptr %43, align 1
  %45 = zext i8 %44 to i32
  %46 = and i32 %45, 1
  %47 = icmp eq i32 %46, 1
  br i1 %47, label %48, label %57

48:                                               ; preds = %41
  %49 = load ptr, ptr %3, align 8
  %50 = getelementptr inbounds nuw %struct.varattrib_1b, ptr %49, i32 0, i32 0
  %51 = load i8, ptr %50, align 1
  %52 = zext i8 %51 to i32
  %53 = ashr i32 %52, 1
  %54 = and i32 %53, 127
  %55 = sext i32 %54 to i64
  %56 = sub i64 %55, 1
  br label %65

57:                                               ; preds = %41
  %58 = load ptr, ptr %3, align 8
  %59 = getelementptr inbounds nuw %struct.anon, ptr %58, i32 0, i32 0
  %60 = load i32, ptr %59, align 4
  %61 = lshr i32 %60, 2
  %62 = and i32 %61, 1073741823
  %63 = sub i32 %62, 4
  %64 = zext i32 %63 to i64
  br label %65

65:                                               ; preds = %57, %48
  %66 = phi i64 [ %56, %48 ], [ %64, %57 ]
  br label %67

67:                                               ; preds = %65, %37
  %68 = phi i64 [ %40, %37 ], [ %66, %65 ]
  %69 = trunc i64 %68 to i32
  store i32 %69, ptr %4, align 4
  %70 = load i32, ptr %4, align 4
  %71 = load ptr, ptr @PGLZ_strategy_default, align 8
  %72 = getelementptr inbounds nuw %struct.PGLZ_Strategy, ptr %71, i32 0, i32 0
  %73 = load i32, ptr %72, align 4
  %74 = icmp slt i32 %70, %73
  br i1 %74, label %81, label %75

75:                                               ; preds = %67
  %76 = load i32, ptr %4, align 4
  %77 = load ptr, ptr @PGLZ_strategy_default, align 8
  %78 = getelementptr inbounds nuw %struct.PGLZ_Strategy, ptr %77, i32 0, i32 1
  %79 = load i32, ptr %78, align 4
  %80 = icmp sgt i32 %76, %79
  br i1 %80, label %81, label %82

81:                                               ; preds = %75, %67
  store ptr null, ptr %2, align 8
  store i32 1, ptr %7, align 4
  br label %122

82:                                               ; preds = %75
  %83 = load i32, ptr %4, align 4
  %84 = add i32 %83, 4
  %85 = sext i32 %84 to i64
  %86 = add i64 %85, 8
  %87 = call ptr @palloc(i64 noundef %86)
  store ptr %87, ptr %6, align 8
  %88 = load ptr, ptr %3, align 8
  %89 = getelementptr inbounds nuw %struct.varattrib_1b, ptr %88, i32 0, i32 0
  %90 = load i8, ptr %89, align 1
  %91 = zext i8 %90 to i32
  %92 = and i32 %91, 1
  %93 = icmp eq i32 %92, 1
  br i1 %93, label %94, label %98

94:                                               ; preds = %82
  %95 = load ptr, ptr %3, align 8
  %96 = getelementptr inbounds nuw %struct.varattrib_1b, ptr %95, i32 0, i32 1
  %97 = getelementptr inbounds [0 x i8], ptr %96, i64 0, i64 0
  br label %102

98:                                               ; preds = %82
  %99 = load ptr, ptr %3, align 8
  %100 = getelementptr inbounds nuw %struct.anon, ptr %99, i32 0, i32 1
  %101 = getelementptr inbounds [0 x i8], ptr %100, i64 0, i64 0
  br label %102

102:                                              ; preds = %98, %94
  %103 = phi ptr [ %97, %94 ], [ %101, %98 ]
  %104 = load i32, ptr %4, align 4
  %105 = load ptr, ptr %6, align 8
  %106 = getelementptr inbounds nuw i8, ptr %105, i64 8
  %107 = call i32 @pglz_compress(ptr noundef %103, i32 noundef %104, ptr noundef %106, ptr noundef null)
  store i32 %107, ptr %5, align 4
  %108 = load i32, ptr %5, align 4
  %109 = icmp slt i32 %108, 0
  br i1 %109, label %110, label %112

110:                                              ; preds = %102
  %111 = load ptr, ptr %6, align 8
  call void @pfree(ptr noundef %111)
  store ptr null, ptr %2, align 8
  store i32 1, ptr %7, align 4
  br label %122

112:                                              ; preds = %102
  %113 = load i32, ptr %5, align 4
  %114 = sext i32 %113 to i64
  %115 = add i64 %114, 8
  %116 = trunc i64 %115 to i32
  %117 = shl i32 %116, 2
  %118 = or i32 %117, 2
  %119 = load ptr, ptr %6, align 8
  %120 = getelementptr inbounds nuw %struct.anon, ptr %119, i32 0, i32 0
  store i32 %118, ptr %120, align 4
  %121 = load ptr, ptr %6, align 8
  store ptr %121, ptr %2, align 8
  store i32 1, ptr %7, align 4
  br label %122

122:                                              ; preds = %112, %110, %81
  call void @llvm.lifetime.end.p0(i64 8, ptr %6) #6
  call void @llvm.lifetime.end.p0(i64 4, ptr %5) #6
  call void @llvm.lifetime.end.p0(i64 4, ptr %4) #6
  %123 = load ptr, ptr %2, align 8
  ret ptr %123
}